; Function Attrs: mustprogress uwtable
define void @_ZN4YAML4DumpB5cxx11ERKNS_4NodeE(ptr noalias sret(%"class.std::__cxx11::basic_string") align 8 %agg.result, ptr noundef nonnull align 1 %node) local_unnamed_addr #0 personality ptr @__gxx_personality_v0 {
entry:
  %emitter = alloca %"class.YAML::Emitter", align 8
  %ref.tmp = alloca %"class.std::allocator.2", align 1
  call void @_ZN4YAML7EmitterC1Ev(ptr noundef nonnull align 8 dereferenceable(72) %emitter)
  %call = invoke noundef nonnull align 8 dereferenceable(72) ptr @_ZN4YAMLlsERNS_7EmitterERKNS_4NodeE(ptr noundef nonnull align 8 dereferenceable(72) %emitter, ptr noundef nonnull align 1 %node)
          to label %invoke.cont unwind label %lpad

invoke.cont:                                      ; preds = %entry
  %call2 = invoke noundef ptr @_ZNK4YAML7Emitter5c_strEv(ptr noundef nonnull align 8 dereferenceable(72) %emitter)
          to label %invoke.cont1 unwind label %lpad

invoke.cont1:                                     ; preds = %invoke.cont
  call void @_ZNSaIcEC1Ev(ptr noundef nonnull align 1 dereferenceable(1) %ref.tmp) #7
  invoke void @_ZNSt7__cxx1112basic_stringIcSt11char_traitsIcESaIcEEC1EPKcRKS3_(ptr noundef nonnull align 8 dereferenceable(32) %agg.result, ptr noundef %call2, ptr noundef nonnull align 1 dereferenceable(1) %ref.tmp)
          to label %invoke.cont4 unwind label %lpad3

invoke.cont4:                                     ; preds = %invoke.cont1
  call void @_ZNSaIcED1Ev(ptr noundef nonnull align 1 dereferenceable(1) %ref.tmp) #7
  call void @_ZN4YAML7EmitterD1Ev(ptr noundef nonnull align 8 dereferenceable(72) %emitter) #7
  ret void

lpad:                                             ; preds = %invoke.cont, %entry
  %0 = landingpad { ptr, i32 }
          cleanup
  br label %ehcleanup

lpad3:                                            ; preds = %invoke.cont1
  %1 = landingpad { ptr, i32 }
          cleanup
  call void @_ZNSaIcED1Ev(ptr noundef nonnull align 1 dereferenceable(1) %ref.tmp) #7
  br label %ehcleanup

ehcleanup:                                        ; preds = %lpad3, %lpad
  %.pn = phi { ptr, i32 } [ %1, %lpad3 ], [ %0, %lpad ]
  call void @_ZN4YAML7EmitterD1Ev(ptr noundef nonnull align 8 dereferenceable(72) %emitter) #7
  resume { ptr, i32 } %.pn
}